target datalayout = "e-m:e-p270:32:32-p271:32:32-p272:64:64-i64:64-i128:128-f80:128-n8:16:32:64-S128"
target triple = "x86_64-pc-linux-gnu"

%struct._mcaststream_tapinfo = type { ptr, ptr, ptr, ptr, i32, ptr, i8 }
%struct._GList = type { ptr, ptr, ptr }
%struct._mcast_stream_info = type { %struct._address, i16, %struct._address, i16, i32, double, i64, double, i32, %struct.nstime_t, %struct.nstime_t, %struct.nstime_t, %struct.buffer }
%struct._address = type { i32, i32, ptr, ptr }
%struct.nstime_t = type { i64, i32 }
%struct.buffer = type { ptr, i32, i32, i32, i32, i32, i32, i32, i32, i32, i32, i32, double }

; Function Attrs: inlinehint nounwind null_pointer_is_valid sspstrong uwtable
define internal void @clear_address(ptr noundef %0) #8 {
  %2 = alloca ptr, align 8
  store ptr %0, ptr %2, align 8
  %3 = load ptr, ptr %2, align 8
  %4 = getelementptr inbounds nuw %struct._address, ptr %3, i32 0, i32 0
  store i32 0, ptr %4, align 8
  %5 = load ptr, ptr %2, align 8
  %6 = getelementptr inbounds nuw %struct._address, ptr %5, i32 0, i32 1
  store i32 0, ptr %6, align 4
  %7 = load ptr, ptr %2, align 8
  %8 = getelementptr inbounds nuw %struct._address, ptr %7, i32 0, i32 2
  store ptr null, ptr %8, align 8
  %9 = load ptr, ptr %2, align 8
  %10 = getelementptr inbounds nuw %struct._address, ptr %9, i32 0, i32 3
  store ptr null, ptr %10, align 8
  ret void
}

; Function Attrs: inlinehint null_pointer_is_valid sspstrong uwtable
define internal void @free_address_wmem(ptr noundef %0, ptr noundef %1) #3 {
  %3 = alloca ptr, align 8
  %4 = alloca ptr, align 8
  store ptr %0, ptr %3, align 8
  store ptr %1, ptr %4, align 8
  %5 = load ptr, ptr %4, align 8
  %6 = getelementptr inbounds nuw %struct._address, ptr %5, i32 0, i32 0
  %7 = load i32, ptr %6, align 8
  %8 = icmp ne i32 %7, 0
  br i1 %8, label %9, label %26

9:                                                ; preds = %2
  %10 = load ptr, ptr %4, align 8
  %11 = getelementptr inbounds nuw %struct._address, ptr %10, i32 0, i32 1
  %12 = load i32, ptr %11, align 4
  %13 = icmp sgt i32 %12, 0
  br i1 %13, label %14, label %26

14:                                               ; preds = %9
  %15 = load ptr, ptr %4, align 8
  %16 = getelementptr inbounds nuw %struct._address, ptr %15, i32 0, i32 3
  %17 = load ptr, ptr %16, align 8
  %18 = icmp ne ptr %17, null
  br i1 %18, label %19, label %26

19:                                               ; preds = %14
  br label %20

20:                                               ; preds = %19
  br label %21

21:                                               ; preds = %20
  %22 = load ptr, ptr %3, align 8
  %23 = load ptr, ptr %4, align 8
  %24 = getelementptr inbounds nuw %struct._address, ptr %23, i32 0, i32 3
  %25 = load ptr, ptr %24, align 8
  call void @wmem_free(ptr noundef %22, ptr noundef %25)
  br label %26

26:                                               ; preds = %21, %14, %9, %2
  %27 = load ptr, ptr %4, align 8
  call void @clear_address(ptr noundef %27)
  ret void
}

; Function Attrs: null_pointer_is_valid sspstrong uwtable
define hidden void @mcaststream_reset(ptr noundef %0) #0 {
  %2 = alloca ptr, align 8
  %3 = alloca ptr, align 8
  %4 = alloca ptr, align 8
  store ptr %0, ptr %2, align 8
  call void @llvm.lifetime.start.p0(i64 8, ptr %3) #12
  call void @llvm.lifetime.start.p0(i64 8, ptr %4) #12
  %5 = load ptr, ptr %2, align 8
  %6 = getelementptr inbounds nuw %struct._mcaststream_tapinfo, ptr %5, i32 0, i32 3
  %7 = load ptr, ptr %6, align 8
  %8 = call ptr @g_list_first(ptr noundef %7)
  store ptr %8, ptr %3, align 8
  br label %9

9:                                                ; preds = %32, %1
  %10 = load ptr, ptr %3, align 8
  %11 = icmp ne ptr %10, null
  br i1 %11, label %12, label %34

12:                                               ; preds = %9
  %13 = load ptr, ptr %3, align 8
  %14 = getelementptr inbounds nuw %struct._GList, ptr %13, i32 0, i32 0
  %15 = load ptr, ptr %14, align 8
  store ptr %15, ptr %4, align 8
  %16 = load ptr, ptr %4, align 8
  %17 = getelementptr inbounds nuw %struct._mcast_stream_info, ptr %16, i32 0, i32 12
  %18 = getelementptr inbounds nuw %struct.buffer, ptr %17, i32 0, i32 0
  %19 = load ptr, ptr %18, align 8
  call void @g_free(ptr noundef %19)
  %20 = load ptr, ptr %4, align 8
  %21 = getelementptr inbounds nuw %struct._mcast_stream_info, ptr %20, i32 0, i32 0
  call void @free_address_wmem(ptr noundef null, ptr noundef %21)
  %22 = load ptr, ptr %4, align 8
  %23 = getelementptr inbounds nuw %struct._mcast_stream_info, ptr %22, i32 0, i32 2
  call void @free_address_wmem(ptr noundef null, ptr noundef %23)
  %24 = load ptr, ptr %4, align 8
  call void @g_free(ptr noundef %24)
  %25 = load ptr, ptr %3, align 8
  %26 = icmp ne ptr %25, null
  br i1 %26, label %27, label %31

27:                                               ; preds = %12
  %28 = load ptr, ptr %3, align 8
  %29 = getelementptr inbounds nuw %struct._GList, ptr %28, i32 0, i32 1
  %30 = load ptr, ptr %29, align 8
  br label %32

31:                                               ; preds = %12
  br label %32

32:                                               ; preds = %31, %27
  %33 = phi ptr [ %30, %27 ], [ null, %31 ]
  store ptr %33, ptr %3, align 8
  br label %9, !llvm.loop !6

34:                                               ; preds = %9
  %35 = load ptr, ptr %2, align 8
  %36 = getelementptr inbounds nuw %struct._mcaststream_tapinfo, ptr %35, i32 0, i32 3
  %37 = load ptr, ptr %36, align 8
  call void @g_list_free(ptr noundef %37)
  %38 = load ptr, ptr %2, align 8
  %39 = getelementptr inbounds nuw %struct._mcaststream_tapinfo, ptr %38, i32 0, i32 3
  store ptr null, ptr %39, align 8
  %40 = load ptr, ptr %2, align 8
  %41 = getelementptr inbounds nuw %struct._mcaststream_tapinfo, ptr %40, i32 0, i32 5
  %42 = load ptr, ptr %41, align 8
  %43 = icmp ne ptr %42, null
  br i1 %43, label %44, label %56

44:                                               ; preds = %34
  %45 = load ptr, ptr %2, align 8
  %46 = getelementptr inbounds nuw %struct._mcaststream_tapinfo, ptr %45, i32 0, i32 5
  %47 = load ptr, ptr %46, align 8
  %48 = getelementptr inbounds nuw %struct._mcast_stream_info, ptr %47, i32 0, i32 12
  %49 = getelementptr inbounds nuw %struct.buffer, ptr %48, i32 0, i32 0
  %50 = load ptr, ptr %49, align 8
  call void @g_free(ptr noundef %50)
  %51 = load ptr, ptr %2, align 8
  %52 = getelementptr inbounds nuw %struct._mcaststream_tapinfo, ptr %51, i32 0, i32 5
  %53 = load ptr, ptr %52, align 8
  call void @g_free(ptr noundef %53)
  %54 = load ptr, ptr %2, align 8
  %55 = getelementptr inbounds nuw %struct._mcaststream_tapinfo, ptr %54, i32 0, i32 5
  store ptr null, ptr %55, align 8
  br label %56

56:                                               ; preds = %44, %34
  %57 = load ptr, ptr %2, align 8
  %58 = getelementptr inbounds nuw %struct._mcaststream_tapinfo, ptr %57, i32 0, i32 4
  store i32 0, ptr %58, align 8
  call void @llvm.lifetime.end.p0(i64 8, ptr %4) #12
  call void @llvm.lifetime.end.p0(i64 8, ptr %3) #12
  ret void
}