; Function Attrs: null_pointer_is_valid sspstrong uwtable
define hidden void @mcaststream_reset(ptr noundef captures(none) %0) local_unnamed_addr #0 {
  %2 = getelementptr inbounds nuw i8, ptr %0, i64 24
  %3 = load ptr, ptr %2, align 8
  %4 = tail call ptr @g_list_first(ptr noundef %3)
  %.not21 = icmp eq ptr %4, null
  br i1 %.not21, label %._crit_edge, label %.lr.ph

.lr.ph:                                           ; preds = %1, %free_address_wmem.exit20
  %.022 = phi ptr [ %28, %free_address_wmem.exit20 ], [ %4, %1 ]
  %5 = load ptr, ptr %.022, align 8
  %6 = getelementptr inbounds nuw i8, ptr %5, i64 144
  %7 = load ptr, ptr %6, align 8
  tail call void @g_free(ptr noundef %7)
  %8 = load i32, ptr %5, align 8
  %.not.i = icmp eq i32 %8, 0
  br i1 %.not.i, label %free_address_wmem.exit, label %9

9:                                                ; preds = %.lr.ph
  %10 = getelementptr inbounds nuw i8, ptr %5, i64 4
  %11 = load i32, ptr %10, align 4
  %12 = icmp sgt i32 %11, 0
  br i1 %12, label %13, label %free_address_wmem.exit

13:                                               ; preds = %9
  %14 = getelementptr inbounds nuw i8, ptr %5, i64 16
  %15 = load ptr, ptr %14, align 8
  %.not6.i = icmp eq ptr %15, null
  br i1 %.not6.i, label %free_address_wmem.exit, label %16

16:                                               ; preds = %13
  tail call void @wmem_free(ptr noundef null, ptr noundef nonnull %15)
  br label %free_address_wmem.exit

free_address_wmem.exit:                           ; preds = %.lr.ph, %9, %13, %16
  tail call void @llvm.memset.p0.i64(ptr noundef align 8 dereferenceable(24) %5, i8 0, i64 24, i1 false)
  %17 = getelementptr inbounds nuw i8, ptr %5, i64 32
  %18 = load i32, ptr %17, align 8
  %.not.i18 = icmp eq i32 %18, 0
  br i1 %.not.i18, label %free_address_wmem.exit20, label %19

19:                                               ; preds = %free_address_wmem.exit
  %20 = getelementptr inbounds nuw i8, ptr %5, i64 36
  %21 = load i32, ptr %20, align 4
  %22 = icmp sgt i32 %21, 0
  br i1 %22, label %23, label %free_address_wmem.exit20

23:                                               ; preds = %19
  %24 = getelementptr inbounds nuw i8, ptr %5, i64 48
  %25 = load ptr, ptr %24, align 8
  %.not6.i19 = icmp eq ptr %25, null
  br i1 %.not6.i19, label %free_address_wmem.exit20, label %26

26:                                               ; preds = %23
  tail call void @wmem_free(ptr noundef null, ptr noundef nonnull %25)
  br label %free_address_wmem.exit20

free_address_wmem.exit20:                         ; preds = %free_address_wmem.exit, %19, %23, %26
  tail call void @llvm.memset.p0.i64(ptr noundef nonnull align 8 dereferenceable(24) %17, i8 0, i64 24, i1 false)
  tail call void @g_free(ptr noundef %5)
  %27 = getelementptr inbounds nuw i8, ptr %.022, i64 8
  %28 = load ptr, ptr %27, align 8
  %.not = icmp eq ptr %28, null
  br i1 %.not, label %._crit_edge, label %.lr.ph, !llvm.loop !6

._crit_edge:                                      ; preds = %free_address_wmem.exit20, %1
  %29 = load ptr, ptr %2, align 8
  tail call void @g_list_free(ptr noundef %29)
  store ptr null, ptr %2, align 8
  %30 = getelementptr inbounds nuw i8, ptr %0, i64 40
  %31 = load ptr, ptr %30, align 8
  %.not17 = icmp eq ptr %31, null
  br i1 %.not17, label %36, label %32

32:                                               ; preds = %._crit_edge
  %33 = getelementptr inbounds nuw i8, ptr %31, i64 144
  %34 = load ptr, ptr %33, align 8
  tail call void @g_free(ptr noundef %34)
  %35 = load ptr, ptr %30, align 8
  tail call void @g_free(ptr noundef %35)
  store ptr null, ptr %30, align 8
  br label %36

36:                                               ; preds = %32, %._crit_edge
  %37 = getelementptr inbounds nuw i8, ptr %0, i64 32
  store i32 0, ptr %37, align 8
  ret void
}